target datalayout = "e-m:e-p270:32:32-p271:32:32-p272:64:64-i64:64-i128:128-f80:128-n8:16:32:64-S128"
target triple = "x86_64-pc-linux-gnu"

@hf_advertising_address = internal global i32 0, align 4
@hf_control_phys = internal global i32 0, align 4
@hf_control_sync_id = internal global i32 0, align 4
@hf_control_sync_info_offset = internal global i32 0, align 4
@hf_control_sync_info_offset_units = internal global i32 0, align 4
@hf_control_sync_info_offset_adjust = internal global i32 0, align 4
@hf_control_sync_info_reserved = internal global i32 0, align 4
@hf_control_sync_info_interval = internal global i32 0, align 4
@hf_control_sync_info_channel_map = internal global i32 0, align 4
@hf_control_sync_info_sleep_clock_accuracy = internal global i32 0, align 4
@hf_control_sync_info_access_address = internal global i32 0, align 4
@hf_control_sync_info_crc_init = internal global i32 0, align 4
@hf_control_sync_info_event_counter = internal global i32 0, align 4
@hf_control_sync_conn_event_count = internal global i32 0, align 4
@hf_control_sync_last_pa_event_counter = internal global i32 0, align 4
@hf_control_sync_sync_conn_event_counter = internal global i32 0, align 4
@ett_phys = internal global i32 0, align 4
@ett_channel_map = internal global i32 0, align 4
@btcommon_le_channel_map_handle = internal global ptr null, align 8
@.str.974 = private unnamed_addr constant [11 x i8] c" (%g msec)\00", align 1
@.str.977 = private unnamed_addr constant [11 x i8] c" (%u usec)\00", align 1
@.str.978 = private unnamed_addr constant [23 x i8] c" Cannot be represented\00", align 1
@hfx_control_phys = internal constant [5 x ptr] [ptr @hf_control_phys_le_1m_phy, ptr @hf_control_phys_le_2m_phy, ptr @hf_control_phys_le_coded_phy, ptr @hf_control_phys_reserved_bits, ptr null], align 16
@hfx_control_periodicsyncflags = internal constant [4 x ptr] [ptr @hf_control_sync_sid, ptr @hf_control_sync_atype, ptr @hf_control_sync_sleep_clock_accuracy, ptr null], align 16

; Function Attrs: null_pointer_is_valid sspstrong uwtable
define internal i32 @dissect_periodic_sync_ind(ptr noundef %0, ptr noundef %1, i32 noundef %2, ptr noundef %3, i32 noundef %4, i32 noundef %5) #0 {
  %7 = alloca ptr, align 8
  %8 = alloca ptr, align 8
  %9 = alloca i32, align 4
  %10 = alloca ptr, align 8
  %11 = alloca i32, align 4
  %12 = alloca i32, align 4
  %13 = alloca i32, align 4
  %14 = alloca i32, align 4
  %15 = alloca i32, align 4
  %16 = alloca i16, align 2
  %17 = alloca [6 x i8], align 1
  %18 = alloca ptr, align 8
  %19 = alloca ptr, align 8
  %20 = alloca ptr, align 8
  store ptr %0, ptr %7, align 8
  store ptr %1, ptr %8, align 8
  store i32 %2, ptr %9, align 4
  store ptr %3, ptr %10, align 8
  store i32 %4, ptr %11, align 4
  store i32 %5, ptr %12, align 4
  call void @llvm.lifetime.start.p0(i64 4, ptr %13) #13
  call void @llvm.lifetime.start.p0(i64 4, ptr %14) #13
  call void @llvm.lifetime.start.p0(i64 4, ptr %15) #13
  call void @llvm.lifetime.start.p0(i64 2, ptr %16) #13
  call void @llvm.lifetime.start.p0(i64 6, ptr %17) #13
  call void @llvm.lifetime.start.p0(i64 8, ptr %18) #13
  call void @llvm.lifetime.start.p0(i64 8, ptr %19) #13
  call void @llvm.lifetime.start.p0(i64 8, ptr %20) #13
  %21 = load ptr, ptr %8, align 8
  %22 = load i32, ptr @hf_control_sync_id, align 4
  %23 = load ptr, ptr %7, align 8
  %24 = load i32, ptr %9, align 4
  %25 = call ptr @proto_tree_add_item(ptr noundef %21, i32 noundef %22, ptr noundef %23, i32 noundef %24, i32 noundef 2, i32 noundef -2147483648)
  %26 = load i32, ptr %9, align 4
  %27 = add i32 %26, 2
  store i32 %27, ptr %9, align 4
  %28 = load ptr, ptr %7, align 8
  %29 = load i32, ptr %9, align 4
  %30 = call zeroext i16 @tvb_get_uint16(ptr noundef %28, i32 noundef %29, i32 noundef -2147483648)
  store i16 %30, ptr %16, align 2
  %31 = load ptr, ptr %8, align 8
  %32 = load i32, ptr @hf_control_sync_info_offset, align 4
  %33 = load ptr, ptr %7, align 8
  %34 = load i32, ptr %9, align 4
  %35 = call ptr @proto_tree_add_item_ret_uint(ptr noundef %31, i32 noundef %32, ptr noundef %33, i32 noundef %34, i32 noundef 2, i32 noundef -2147483648, ptr noundef %13)
  store ptr %35, ptr %18, align 8
  %36 = load ptr, ptr %8, align 8
  %37 = load i32, ptr @hf_control_sync_info_offset_units, align 4
  %38 = load ptr, ptr %7, align 8
  %39 = load i32, ptr %9, align 4
  %40 = call ptr @proto_tree_add_item(ptr noundef %36, i32 noundef %37, ptr noundef %38, i32 noundef %39, i32 noundef 2, i32 noundef -2147483648)
  %41 = load ptr, ptr %8, align 8
  %42 = load i32, ptr @hf_control_sync_info_offset_adjust, align 4
  %43 = load ptr, ptr %7, align 8
  %44 = load i32, ptr %9, align 4
  %45 = call ptr @proto_tree_add_item(ptr noundef %41, i32 noundef %42, ptr noundef %43, i32 noundef %44, i32 noundef 2, i32 noundef -2147483648)
  %46 = load ptr, ptr %8, align 8
  %47 = load i32, ptr @hf_control_sync_info_reserved, align 4
  %48 = load ptr, ptr %7, align 8
  %49 = load i32, ptr %9, align 4
  %50 = call ptr @proto_tree_add_item(ptr noundef %46, i32 noundef %47, ptr noundef %48, i32 noundef %49, i32 noundef 2, i32 noundef -2147483648)
  %51 = load i32, ptr %13, align 4
  %52 = icmp ugt i32 %51, 0
  br i1 %52, label %53, label %68

53:                                               ; preds = %6
  %54 = load ptr, ptr %18, align 8
  %55 = load i32, ptr %13, align 4
  %56 = load i16, ptr %16, align 2
  %57 = zext i16 %56 to i32
  %58 = and i32 %57, 8192
  %59 = icmp ne i32 %58, 0
  %60 = select i1 %59, i32 300, i32 30
  %61 = mul i32 %55, %60
  %62 = load i16, ptr %16, align 2
  %63 = zext i16 %62 to i32
  %64 = and i32 %63, 16384
  %65 = icmp ne i32 %64, 0
  %66 = select i1 %65, i32 2457600, i32 0
  %67 = add i32 %61, %66
  call void (ptr, ptr, ...) @proto_item_append_text(ptr noundef %54, ptr noundef @.str.977, i32 noundef %67)
  br label %70

68:                                               ; preds = %6
  %69 = load ptr, ptr %18, align 8
  call void (ptr, ptr, ...) @proto_item_append_text(ptr noundef %69, ptr noundef @.str.978)
  br label %70

70:                                               ; preds = %68, %53
  %71 = load i32, ptr %9, align 4
  %72 = add i32 %71, 2
  store i32 %72, ptr %9, align 4
  %73 = load ptr, ptr %8, align 8
  %74 = load i32, ptr @hf_control_sync_info_interval, align 4
  %75 = load ptr, ptr %7, align 8
  %76 = load i32, ptr %9, align 4
  %77 = call ptr @proto_tree_add_item_ret_uint(ptr noundef %73, i32 noundef %74, ptr noundef %75, i32 noundef %76, i32 noundef 2, i32 noundef -2147483648, ptr noundef %14)
  store ptr %77, ptr %18, align 8
  %78 = load ptr, ptr %18, align 8
  %79 = load i32, ptr %14, align 4
  %80 = uitofp i32 %79 to double
  %81 = fmul double %80, 1.250000e+00
  call void (ptr, ptr, ...) @proto_item_append_text(ptr noundef %78, ptr noundef @.str.974, double noundef %81)
  %82 = load i32, ptr %9, align 4
  %83 = add i32 %82, 2
  store i32 %83, ptr %9, align 4
  %84 = load ptr, ptr %8, align 8
  %85 = load i32, ptr @hf_control_sync_info_channel_map, align 4
  %86 = load ptr, ptr %7, align 8
  %87 = load i32, ptr %9, align 4
  %88 = call ptr @proto_tree_add_item(ptr noundef %84, i32 noundef %85, ptr noundef %86, i32 noundef %87, i32 noundef 5, i32 noundef 0)
  store ptr %88, ptr %19, align 8
  %89 = load ptr, ptr %19, align 8
  %90 = load i32, ptr @ett_channel_map, align 4
  %91 = call ptr @proto_item_add_subtree(ptr noundef %89, i32 noundef %90)
  store ptr %91, ptr %20, align 8
  %92 = load ptr, ptr @btcommon_le_channel_map_handle, align 8
  %93 = load ptr, ptr %7, align 8
  %94 = load i32, ptr %9, align 4
  %95 = call ptr @tvb_new_subset_length(ptr noundef %93, i32 noundef %94, i32 noundef 5)
  %96 = load ptr, ptr %10, align 8
  %97 = load ptr, ptr %20, align 8
  %98 = call i32 @call_dissector_with_data(ptr noundef %92, ptr noundef %95, ptr noundef %96, ptr noundef %97, ptr noundef %15)
  %99 = load ptr, ptr %8, align 8
  %100 = load i32, ptr @hf_control_sync_info_sleep_clock_accuracy, align 4
  %101 = load ptr, ptr %7, align 8
  %102 = load i32, ptr %15, align 4
  %103 = call ptr @proto_tree_add_item(ptr noundef %99, i32 noundef %100, ptr noundef %101, i32 noundef %102, i32 noundef 1, i32 noundef -2147483648)
  %104 = load i32, ptr %9, align 4
  %105 = add i32 %104, 5
  store i32 %105, ptr %9, align 4
  %106 = load ptr, ptr %8, align 8
  %107 = load i32, ptr @hf_control_sync_info_access_address, align 4
  %108 = load ptr, ptr %7, align 8
  %109 = load i32, ptr %9, align 4
  %110 = call ptr @proto_tree_add_item(ptr noundef %106, i32 noundef %107, ptr noundef %108, i32 noundef %109, i32 noundef 4, i32 noundef -2147483648)
  %111 = load i32, ptr %9, align 4
  %112 = add i32 %111, 4
  store i32 %112, ptr %9, align 4
  %113 = load ptr, ptr %8, align 8
  %114 = load i32, ptr @hf_control_sync_info_crc_init, align 4
  %115 = load ptr, ptr %7, align 8
  %116 = load i32, ptr %9, align 4
  %117 = call ptr @proto_tree_add_item(ptr noundef %113, i32 noundef %114, ptr noundef %115, i32 noundef %116, i32 noundef 3, i32 noundef -2147483648)
  %118 = load i32, ptr %9, align 4
  %119 = add i32 %118, 3
  store i32 %119, ptr %9, align 4
  %120 = load ptr, ptr %8, align 8
  %121 = load i32, ptr @hf_control_sync_info_event_counter, align 4
  %122 = load ptr, ptr %7, align 8
  %123 = load i32, ptr %9, align 4
  %124 = call ptr @proto_tree_add_item(ptr noundef %120, i32 noundef %121, ptr noundef %122, i32 noundef %123, i32 noundef 2, i32 noundef -2147483648)
  %125 = load i32, ptr %9, align 4
  %126 = add i32 %125, 2
  store i32 %126, ptr %9, align 4
  %127 = load ptr, ptr %8, align 8
  %128 = load i32, ptr @hf_control_sync_conn_event_count, align 4
  %129 = load ptr, ptr %7, align 8
  %130 = load i32, ptr %9, align 4
  %131 = call ptr @proto_tree_add_item(ptr noundef %127, i32 noundef %128, ptr noundef %129, i32 noundef %130, i32 noundef 2, i32 noundef -2147483648)
  %132 = load i32, ptr %9, align 4
  %133 = add i32 %132, 2
  store i32 %133, ptr %9, align 4
  %134 = load ptr, ptr %8, align 8
  %135 = load i32, ptr @hf_control_sync_last_pa_event_counter, align 4
  %136 = load ptr, ptr %7, align 8
  %137 = load i32, ptr %9, align 4
  %138 = call ptr @proto_tree_add_item(ptr noundef %134, i32 noundef %135, ptr noundef %136, i32 noundef %137, i32 noundef 2, i32 noundef -2147483648)
  %139 = load i32, ptr %9, align 4
  %140 = add i32 %139, 2
  store i32 %140, ptr %9, align 4
  %141 = load ptr, ptr %8, align 8
  %142 = load ptr, ptr %7, align 8
  %143 = load i32, ptr %9, align 4
  call void @proto_tree_add_bitmask_list(ptr noundef %141, ptr noundef %142, i32 noundef %143, i32 noundef 1, ptr noundef @hfx_control_periodicsyncflags, i32 noundef 0)
  %144 = load i32, ptr %9, align 4
  %145 = add i32 %144, 1
  store i32 %145, ptr %9, align 4
  %146 = load ptr, ptr %8, align 8
  %147 = load ptr, ptr %7, align 8
  %148 = load i32, ptr %9, align 4
  %149 = load i32, ptr @hf_control_phys, align 4
  %150 = load i32, ptr @ett_phys, align 4
  %151 = call ptr @proto_tree_add_bitmask(ptr noundef %146, ptr noundef %147, i32 noundef %148, i32 noundef %149, i32 noundef %150, ptr noundef @hfx_control_phys, i32 noundef 0)
  %152 = load i32, ptr %9, align 4
  %153 = add i32 %152, 1
  store i32 %153, ptr %9, align 4
  %154 = load i32, ptr @hf_advertising_address, align 4
  %155 = load ptr, ptr %10, align 8
  %156 = load ptr, ptr %8, align 8
  %157 = load ptr, ptr %7, align 8
  %158 = load i32, ptr %9, align 4
  %159 = load i32, ptr %11, align 4
  %160 = load i32, ptr %12, align 4
  %161 = getelementptr inbounds [6 x i8], ptr %17, i64 0, i64 0
  %162 = call i32 @dissect_bd_addr(i32 noundef %154, ptr noundef %155, ptr noundef %156, ptr noundef %157, i32 noundef %158, i1 noundef zeroext true, i32 noundef %159, i32 noundef %160, ptr noundef %161)
  store i32 %162, ptr %9, align 4
  %163 = load ptr, ptr %8, align 8
  %164 = load i32, ptr @hf_control_sync_sync_conn_event_counter, align 4
  %165 = load ptr, ptr %7, align 8
  %166 = load i32, ptr %9, align 4
  %167 = call ptr @proto_tree_add_item(ptr noundef %163, i32 noundef %164, ptr noundef %165, i32 noundef %166, i32 noundef 2, i32 noundef -2147483648)
  %168 = load i32, ptr %9, align 4
  %169 = add i32 %168, 2
  store i32 %169, ptr %9, align 4
  %170 = load i32, ptr %9, align 4
  call void @llvm.lifetime.end.p0(i64 8, ptr %20) #13
  call void @llvm.lifetime.end.p0(i64 8, ptr %19) #13
  call void @llvm.lifetime.end.p0(i64 8, ptr %18) #13
  call void @llvm.lifetime.end.p0(i64 6, ptr %17) #13
  call void @llvm.lifetime.end.p0(i64 2, ptr %16) #13
  call void @llvm.lifetime.end.p0(i64 4, ptr %15) #13
  call void @llvm.lifetime.end.p0(i64 4, ptr %14) #13
  call void @llvm.lifetime.end.p0(i64 4, ptr %13) #13
  ret i32 %170
}