; Function Attrs: null_pointer_is_valid sspstrong uwtable
define internal fastcc noundef i32 @dissect_periodic_sync_ind(ptr noundef %0, ptr noundef %1, i32 noundef range(i32 3, 5) %2, ptr noundef %3, i32 noundef %4, i32 noundef %5) unnamed_addr #0 {
  %7 = alloca i32, align 4
  %8 = alloca i32, align 4
  %9 = alloca i32, align 4
  %10 = alloca [6 x i8], align 1
  call void @llvm.lifetime.start.p0(i64 4, ptr nonnull %7) #12
  call void @llvm.lifetime.start.p0(i64 4, ptr nonnull %8) #12
  call void @llvm.lifetime.start.p0(i64 4, ptr nonnull %9) #12
  call void @llvm.lifetime.start.p0(i64 6, ptr nonnull %10) #12
  %11 = load i32, ptr @hf_control_sync_id, align 4
  %12 = tail call ptr @proto_tree_add_item(ptr noundef %1, i32 noundef %11, ptr noundef %0, i32 noundef %2, i32 noundef 2, i32 noundef -2147483648)
  %13 = add nuw nsw i32 %2, 2
  %14 = tail call zeroext i16 @tvb_get_uint16(ptr noundef %0, i32 noundef %13, i32 noundef -2147483648)
  %15 = load i32, ptr @hf_control_sync_info_offset, align 4
  %16 = call ptr @proto_tree_add_item_ret_uint(ptr noundef %1, i32 noundef %15, ptr noundef %0, i32 noundef %13, i32 noundef 2, i32 noundef -2147483648, ptr noundef nonnull %7)
  %17 = load i32, ptr @hf_control_sync_info_offset_units, align 4
  %18 = call ptr @proto_tree_add_item(ptr noundef %1, i32 noundef %17, ptr noundef %0, i32 noundef %13, i32 noundef 2, i32 noundef -2147483648)
  %19 = load i32, ptr @hf_control_sync_info_offset_adjust, align 4
  %20 = call ptr @proto_tree_add_item(ptr noundef %1, i32 noundef %19, ptr noundef %0, i32 noundef %13, i32 noundef 2, i32 noundef -2147483648)
  %21 = load i32, ptr @hf_control_sync_info_reserved, align 4
  %22 = call ptr @proto_tree_add_item(ptr noundef %1, i32 noundef %21, ptr noundef %0, i32 noundef %13, i32 noundef 2, i32 noundef -2147483648)
  %23 = load i32, ptr %7, align 4
  %.not = icmp eq i32 %23, 0
  br i1 %.not, label %32, label %24

24:                                               ; preds = %6
  %25 = zext i16 %14 to i32
  %26 = and i32 %25, 8192
  %.not77 = icmp eq i32 %26, 0
  %27 = select i1 %.not77, i32 30, i32 300
  %28 = mul i32 %23, %27
  %29 = and i32 %25, 16384
  %.not78 = icmp eq i32 %29, 0
  %30 = select i1 %.not78, i32 0, i32 2457600
  %31 = add i32 %28, %30
  call void (ptr, ptr, ...) @proto_item_append_text(ptr noundef %16, ptr noundef nonnull @.str.977, i32 noundef %31)
  br label %33

32:                                               ; preds = %6
  call void (ptr, ptr, ...) @proto_item_append_text(ptr noundef %16, ptr noundef nonnull @.str.978)
  br label %33

33:                                               ; preds = %32, %24
  %34 = add nuw nsw i32 %2, 4
  %35 = load i32, ptr @hf_control_sync_info_interval, align 4
  %36 = call ptr @proto_tree_add_item_ret_uint(ptr noundef %1, i32 noundef %35, ptr noundef %0, i32 noundef %34, i32 noundef 2, i32 noundef -2147483648, ptr noundef nonnull %8)
  %37 = load i32, ptr %8, align 4
  %38 = uitofp i32 %37 to double
  %39 = fmul double %38, 1.250000e+00
  call void (ptr, ptr, ...) @proto_item_append_text(ptr noundef %36, ptr noundef nonnull @.str.974, double noundef %39)
  %40 = add nuw nsw i32 %2, 6
  %41 = load i32, ptr @hf_control_sync_info_channel_map, align 4
  %42 = call ptr @proto_tree_add_item(ptr noundef %1, i32 noundef %41, ptr noundef %0, i32 noundef %40, i32 noundef 5, i32 noundef 0)
  %43 = load i32, ptr @ett_channel_map, align 4
  %44 = call ptr @proto_item_add_subtree(ptr noundef %42, i32 noundef %43)
  %45 = load ptr, ptr @btcommon_le_channel_map_handle, align 8
  %46 = call ptr @tvb_new_subset_length(ptr noundef %0, i32 noundef %40, i32 noundef 5)
  %47 = call i32 @call_dissector_with_data(ptr noundef %45, ptr noundef %46, ptr noundef %3, ptr noundef %44, ptr noundef nonnull %9)
  %48 = load i32, ptr @hf_control_sync_info_sleep_clock_accuracy, align 4
  %49 = load i32, ptr %9, align 4
  %50 = call ptr @proto_tree_add_item(ptr noundef %1, i32 noundef %48, ptr noundef %0, i32 noundef %49, i32 noundef 1, i32 noundef -2147483648)
  %51 = add nuw nsw i32 %2, 11
  %52 = load i32, ptr @hf_control_sync_info_access_address, align 4
  %53 = call ptr @proto_tree_add_item(ptr noundef %1, i32 noundef %52, ptr noundef %0, i32 noundef %51, i32 noundef 4, i32 noundef -2147483648)
  %54 = add nuw nsw i32 %2, 15
  %55 = load i32, ptr @hf_control_sync_info_crc_init, align 4
  %56 = call ptr @proto_tree_add_item(ptr noundef %1, i32 noundef %55, ptr noundef %0, i32 noundef %54, i32 noundef 3, i32 noundef -2147483648)
  %57 = add nuw nsw i32 %2, 18
  %58 = load i32, ptr @hf_control_sync_info_event_counter, align 4
  %59 = call ptr @proto_tree_add_item(ptr noundef %1, i32 noundef %58, ptr noundef %0, i32 noundef %57, i32 noundef 2, i32 noundef -2147483648)
  %60 = add nuw nsw i32 %2, 20
  %61 = load i32, ptr @hf_control_sync_conn_event_count, align 4
  %62 = call ptr @proto_tree_add_item(ptr noundef %1, i32 noundef %61, ptr noundef %0, i32 noundef %60, i32 noundef 2, i32 noundef -2147483648)
  %63 = add nuw nsw i32 %2, 22
  %64 = load i32, ptr @hf_control_sync_last_pa_event_counter, align 4
  %65 = call ptr @proto_tree_add_item(ptr noundef %1, i32 noundef %64, ptr noundef %0, i32 noundef %63, i32 noundef 2, i32 noundef -2147483648)
  %66 = or disjoint i32 %2, 24
  call void @proto_tree_add_bitmask_list(ptr noundef %1, ptr noundef %0, i32 noundef %66, i32 noundef 1, ptr noundef nonnull @hfx_control_periodicsyncflags, i32 noundef 0)
  %67 = add nuw nsw i32 %2, 25
  %68 = load i32, ptr @hf_control_phys, align 4
  %69 = load i32, ptr @ett_phys, align 4
  %70 = call ptr @proto_tree_add_bitmask(ptr noundef %1, ptr noundef %0, i32 noundef %67, i32 noundef %68, i32 noundef %69, ptr noundef nonnull @hfx_control_phys, i32 noundef 0)
  %71 = add nuw nsw i32 %2, 26
  %72 = load i32, ptr @hf_advertising_address, align 4
  %73 = call i32 @dissect_bd_addr(i32 noundef %72, ptr noundef %3, ptr noundef %1, ptr noundef %0, i32 noundef %71, i1 noundef zeroext true, i32 noundef %4, i32 noundef %5, ptr noundef nonnull %10)
  %74 = load i32, ptr @hf_control_sync_sync_conn_event_counter, align 4
  %75 = call ptr @proto_tree_add_item(ptr noundef %1, i32 noundef %74, ptr noundef %0, i32 noundef %73, i32 noundef 2, i32 noundef -2147483648)
  %76 = add i32 %73, 2
  call void @llvm.lifetime.end.p0(i64 6, ptr nonnull %10) #12
  call void @llvm.lifetime.end.p0(i64 4, ptr nonnull %9) #12
  call void @llvm.lifetime.end.p0(i64 4, ptr nonnull %8) #12
  call void @llvm.lifetime.end.p0(i64 4, ptr nonnull %7) #12
  ret i32 %76
}